target datalayout = "e-m:e-p270:32:32-p271:32:32-p272:64:64-i64:64-i128:128-f80:128-n8:16:32:64-S128"
target triple = "x86_64-pc-linux-gnu"

%struct.mbedtls_x509write_csr = type { ptr, ptr, i32, ptr }

@.str = private unnamed_addr constant [4 x i8] c"U\1D\0F\00", align 1

; Function Attrs: nounwind uwtable
define hidden i32 @mbedtls_x509write_csr_set_extension(ptr noundef %0, ptr noundef %1, i64 noundef %2, i32 noundef %3, ptr noundef %4, i64 noundef %5) #0 {
  %7 = alloca ptr, align 8
  %8 = alloca ptr, align 8
  %9 = alloca i64, align 8
  %10 = alloca i32, align 4
  %11 = alloca ptr, align 8
  %12 = alloca i64, align 8
  store ptr %0, ptr %7, align 8, !tbaa !3
  store ptr %1, ptr %8, align 8, !tbaa !16
  store i64 %2, ptr %9, align 8, !tbaa !18
  store i32 %3, ptr %10, align 4, !tbaa !8
  store ptr %4, ptr %11, align 8, !tbaa !16
  store i64 %5, ptr %12, align 8, !tbaa !18
  %13 = load ptr, ptr %7, align 8, !tbaa !3
  %14 = getelementptr inbounds nuw %struct.mbedtls_x509write_csr, ptr %13, i32 0, i32 3
  %15 = load ptr, ptr %8, align 8, !tbaa !16
  %16 = load i64, ptr %9, align 8, !tbaa !18
  %17 = load i32, ptr %10, align 4, !tbaa !8
  %18 = load ptr, ptr %11, align 8, !tbaa !16
  %19 = load i64, ptr %12, align 8, !tbaa !18
  %20 = call i32 @mbedtls_x509_set_extension(ptr noundef %14, ptr noundef %15, i64 noundef %16, i32 noundef %17, ptr noundef %18, i64 noundef %19)
  ret i32 %20
}

; Function Attrs: nounwind uwtable
define hidden i32 @mbedtls_x509write_csr_set_key_usage(ptr noundef %0, i8 noundef zeroext %1) #0 {
  %3 = alloca i32, align 4
  %4 = alloca ptr, align 8
  %5 = alloca i8, align 1
  %6 = alloca [4 x i8], align 1
  %7 = alloca ptr, align 8
  %8 = alloca i32, align 4
  %9 = alloca i32, align 4
  store ptr %0, ptr %4, align 8, !tbaa !3
  store i8 %1, ptr %5, align 1, !tbaa !22
  call void @llvm.lifetime.start.p0(i64 4, ptr %6) #7
  call void @llvm.memset.p0.i64(ptr align 1 %6, i8 0, i64 4, i1 false)
  call void @llvm.lifetime.start.p0(i64 8, ptr %7) #7
  call void @llvm.lifetime.start.p0(i64 4, ptr %8) #7
  store i32 -110, ptr %8, align 4, !tbaa !8
  %10 = getelementptr inbounds [4 x i8], ptr %6, i64 0, i64 0
  %11 = getelementptr inbounds i8, ptr %10, i64 4
  store ptr %11, ptr %7, align 8, !tbaa !16
  %12 = getelementptr inbounds [4 x i8], ptr %6, i64 0, i64 0
  %13 = call i32 @mbedtls_asn1_write_named_bitstring(ptr noundef %7, ptr noundef %12, ptr noundef %5, i64 noundef 8)
  store i32 %13, ptr %8, align 4, !tbaa !8
  %14 = load i32, ptr %8, align 4, !tbaa !8
  %15 = icmp slt i32 %14, 3
  br i1 %15, label %19, label %16

16:                                               ; preds = %2
  %17 = load i32, ptr %8, align 4, !tbaa !8
  %18 = icmp sgt i32 %17, 4
  br i1 %18, label %19, label %21

19:                                               ; preds = %16, %2
  %20 = load i32, ptr %8, align 4, !tbaa !8
  store i32 %20, ptr %3, align 4
  store i32 1, ptr %9, align 4
  br label %32

21:                                               ; preds = %16
  %22 = load ptr, ptr %4, align 8, !tbaa !3
  %23 = load ptr, ptr %7, align 8, !tbaa !16
  %24 = load i32, ptr %8, align 4, !tbaa !8
  %25 = sext i32 %24 to i64
  %26 = call i32 @mbedtls_x509write_csr_set_extension(ptr noundef %22, ptr noundef @.str, i64 noundef 3, i32 noundef 0, ptr noundef %23, i64 noundef %25)
  store i32 %26, ptr %8, align 4, !tbaa !8
  %27 = load i32, ptr %8, align 4, !tbaa !8
  %28 = icmp ne i32 %27, 0
  br i1 %28, label %29, label %31

29:                                               ; preds = %21
  %30 = load i32, ptr %8, align 4, !tbaa !8
  store i32 %30, ptr %3, align 4
  store i32 1, ptr %9, align 4
  br label %32

31:                                               ; preds = %21
  store i32 0, ptr %3, align 4
  store i32 1, ptr %9, align 4
  br label %32

32:                                               ; preds = %31, %29, %19
  call void @llvm.lifetime.end.p0(i64 4, ptr %8) #7
  call void @llvm.lifetime.end.p0(i64 8, ptr %7) #7
  call void @llvm.lifetime.end.p0(i64 4, ptr %6) #7
  %33 = load i32, ptr %3, align 4
  ret i32 %33
}