; Function Attrs: nounwind uwtable
define hidden i32 @mbedtls_x509write_csr_set_key_usage(ptr noundef %0, i8 noundef zeroext %1) local_unnamed_addr #2 {
  %3 = alloca i8, align 1
  %4 = alloca [4 x i8], align 4
  %5 = alloca ptr, align 8
  store i8 %1, ptr %3, align 1, !tbaa !12
  call void @llvm.lifetime.start.p0(i64 4, ptr nonnull %4) #8
  store i32 0, ptr %4, align 4
  call void @llvm.lifetime.start.p0(i64 8, ptr nonnull %5) #8
  %6 = getelementptr inbounds nuw i8, ptr %4, i64 4
  store ptr %6, ptr %5, align 8, !tbaa !13
  %7 = call i32 @mbedtls_asn1_write_named_bitstring(ptr noundef nonnull %5, ptr noundef nonnull %4, ptr noundef nonnull %3, i64 noundef 8) #8
  %8 = add i32 %7, -5
  %or.cond = icmp ult i32 %8, -2
  br i1 %or.cond, label %14, label %9

9:                                                ; preds = %2
  %10 = load ptr, ptr %5, align 8, !tbaa !13
  %11 = zext nneg i32 %7 to i64
  %12 = getelementptr inbounds nuw i8, ptr %0, i64 24
  %13 = call i32 @mbedtls_x509_set_extension(ptr noundef nonnull %12, ptr noundef nonnull @.str, i64 noundef 3, i32 noundef 0, ptr noundef %10, i64 noundef %11) #8
  br label %14

14:                                               ; preds = %9, %2
  %.0 = phi i32 [ %7, %2 ], [ %13, %9 ]
  call void @llvm.lifetime.end.p0(i64 8, ptr nonnull %5) #8
  call void @llvm.lifetime.end.p0(i64 4, ptr nonnull %4) #8
  ret i32 %.0
}